; Function Attrs: mustprogress uwtable
define noundef i32 @casadi_c_checkout_id(i32 noundef %0) local_unnamed_addr #5 personality ptr @__gxx_personality_v0 {
  %2 = tail call noundef i32 @_Z11sanitize_idi(i32 noundef %0)
  %.not = icmp eq i32 %2, 0
  br i1 %.not, label %3, label %39

3:                                                ; preds = %1
  %4 = sext i32 %0 to i64
  %5 = load ptr, ptr getelementptr inbounds nuw (i8, ptr @_ZL25casadi_c_loaded_functions, i64 8), align 8, !tbaa !9
  %6 = load ptr, ptr @_ZL25casadi_c_loaded_functions, align 8, !tbaa !3
  %7 = ptrtoint ptr %5 to i64
  %8 = ptrtoint ptr %6 to i64
  %9 = sub i64 %7, %8
  %10 = ashr exact i64 %9, 3
  %.not.i.i = icmp ugt i64 %10, %4
  br i1 %.not.i.i, label %12, label %11

11:                                               ; preds = %3
  invoke void (ptr, ...) @_ZSt24__throw_out_of_range_fmtPKcz(ptr noundef nonnull @.str.20, i64 noundef %4, i64 noundef %10) #25
          to label %.noexc unwind label %17

.noexc:                                           ; preds = %11
  unreachable

12:                                               ; preds = %3
  %13 = getelementptr inbounds nuw %"class.casadi::Function", ptr %6, i64 %4
  %14 = invoke noundef i64 @_ZNK6casadi8Function8checkoutEv(ptr noundef nonnull align 8 dereferenceable(8) %13)
          to label %15 unwind label %17

15:                                               ; preds = %12
  %16 = trunc i64 %14 to i32
  br label %39

17:                                               ; preds = %11, %12
  %18 = landingpad { ptr, i32 }
          catch ptr @_ZTISt9exception
          catch ptr null
  %19 = extractvalue { ptr, i32 } %18, 0
  %20 = extractvalue { ptr, i32 } %18, 1
  %21 = tail call i32 @llvm.eh.typeid.for.p0(ptr nonnull @_ZTISt9exception) #23
  %22 = icmp eq i32 %20, %21
  %23 = tail call ptr @__cxa_begin_catch(ptr %19) #23
  br i1 %22, label %24, label %32

24:                                               ; preds = %17
  %25 = load ptr, ptr %23, align 8, !tbaa !32
  %26 = getelementptr inbounds nuw i8, ptr %25, i64 16
  %27 = load ptr, ptr %26, align 8
  %28 = tail call noundef ptr %27(ptr noundef nonnull align 8 dereferenceable(8) %23) #23
  %29 = invoke noundef nonnull align 8 dereferenceable(8) ptr @_ZStlsISt11char_traitsIcEERSt13basic_ostreamIcT_ES5_PKc(ptr noundef nonnull align 8 dereferenceable(8) @_ZSt4cerr, ptr noundef %28)
          to label %30 unwind label %37

30:                                               ; preds = %24
  %31 = invoke noundef nonnull align 8 dereferenceable(8) ptr @_ZSt4endlIcSt11char_traitsIcEERSt13basic_ostreamIT_T0_ES6_(ptr noundef nonnull align 8 dereferenceable(8) %29)
          to label %_ZNSolsEPFRSoS_E.exit unwind label %37

_ZNSolsEPFRSoS_E.exit:                            ; preds = %30
  tail call void @__cxa_end_catch()
  br label %39

32:                                               ; preds = %17
  %33 = invoke noundef nonnull align 8 dereferenceable(8) ptr @_ZSt16__ostream_insertIcSt11char_traitsIcEERSt13basic_ostreamIT_T0_ES6_PKS3_l(ptr noundef nonnull align 8 dereferenceable(8) @_ZSt4cerr, ptr noundef nonnull @.str.8, i64 noundef 18)
          to label %_ZStlsISt11char_traitsIcEERSt13basic_ostreamIcT_ES5_PKc.exit unwind label %35

_ZStlsISt11char_traitsIcEERSt13basic_ostreamIcT_ES5_PKc.exit: ; preds = %32
  %34 = invoke noundef nonnull align 8 dereferenceable(8) ptr @_ZSt4endlIcSt11char_traitsIcEERSt13basic_ostreamIT_T0_ES6_(ptr noundef nonnull align 8 dereferenceable(8) @_ZSt4cerr)
          to label %_ZNSolsEPFRSoS_E.exit14 unwind label %35

_ZNSolsEPFRSoS_E.exit14:                          ; preds = %_ZStlsISt11char_traitsIcEERSt13basic_ostreamIcT_ES5_PKc.exit
  tail call void @__cxa_end_catch()
  br label %39

35:                                               ; preds = %_ZStlsISt11char_traitsIcEERSt13basic_ostreamIcT_ES5_PKc.exit, %32
  %36 = landingpad { ptr, i32 }
          cleanup
  invoke void @__cxa_end_catch()
          to label %40 unwind label %41

37:                                               ; preds = %30, %24
  %38 = landingpad { ptr, i32 }
          cleanup
  invoke void @__cxa_end_catch()
          to label %40 unwind label %41

39:                                               ; preds = %1, %_ZNSolsEPFRSoS_E.exit14, %_ZNSolsEPFRSoS_E.exit, %15
  %.0 = phi i32 [ %16, %15 ], [ -2, %_ZNSolsEPFRSoS_E.exit ], [ -3, %_ZNSolsEPFRSoS_E.exit14 ], [ -1, %1 ]
  ret i32 %.0

40:                                               ; preds = %37, %35
  %.pn = phi { ptr, i32 } [ %36, %35 ], [ %38, %37 ]
  resume { ptr, i32 } %.pn

41:                                               ; preds = %37, %35
  %42 = landingpad { ptr, i32 }
          catch ptr null
  %43 = extractvalue { ptr, i32 } %42, 0
  tail call void @__clang_call_terminate(ptr %43) #26
  unreachable
}